target datalayout = "e-m:e-p270:32:32-p271:32:32-p272:64:64-i64:64-i128:128-f80:128-n8:16:32:64-S128"
target triple = "x86_64-pc-linux-gnu"

%class.PhaseValues = type { %class.PhaseTransform, i8, ptr, ptr, [137 x ptr], [137 x ptr], [20 x ptr] }
%class.PhaseTransform = type { ptr, %class.Phase }
%class.Phase = type { i32, ptr }
%class.Node = type <{ ptr, ptr, ptr, i32, i32, i32, i32, i32, i32, i32, [4 x i8] }>
%class.Type = type <{ ptr, ptr, i32, [4 x i8] }>
%class.TypeInteger.base = type { %class.Type.base, i16 }
%class.Type.base = type <{ ptr, ptr, i32 }>
%class.TypeLong = type { %class.TypeInteger.base, i64, i64 }
%class.Type_Array = type { ptr, i32, ptr }

@_ZN4Type3TOPE = external global ptr, align 8
@_ZN7TypeInt3INTE = external global ptr, align 8

; Function Attrs: mustprogress nounwind uwtable
define linkonce_odr hidden noundef ptr @_ZNK10Type_Array11fast_lookupEj(ptr noundef nonnull align 8 dereferenceable(24) %0, i32 noundef %1) #1 comdat align 2 {
  %3 = alloca ptr, align 8
  %4 = alloca i32, align 4
  store ptr %0, ptr %3, align 8
  store i32 %1, ptr %4, align 4
  %5 = load ptr, ptr %3, align 8
  %6 = getelementptr inbounds %class.Type_Array, ptr %5, i32 0, i32 2
  %7 = load ptr, ptr %6, align 8
  %8 = load i32, ptr %4, align 4
  %9 = zext i32 %8 to i64
  %10 = getelementptr inbounds ptr, ptr %7, i64 %9
  %11 = load ptr, ptr %10, align 8
  ret ptr %11
}

; Function Attrs: mustprogress nounwind uwtable
define linkonce_odr hidden noundef i64 @_ZNK8TypeLong7get_conEv(ptr noundef nonnull align 8 dereferenceable(40) %0) #1 comdat align 2 {
  %2 = alloca ptr, align 8
  store ptr %0, ptr %2, align 8
  %3 = load ptr, ptr %2, align 8
  %4 = getelementptr inbounds %class.TypeLong, ptr %3, i32 0, i32 1
  %5 = load i64, ptr %4, align 8
  ret i64 %5
}

; Function Attrs: mustprogress nounwind uwtable
define linkonce_odr hidden noundef zeroext i1 @_ZNK8TypeLong6is_conEv(ptr noundef nonnull align 8 dereferenceable(40) %0) #1 comdat align 2 {
  %2 = alloca ptr, align 8
  store ptr %0, ptr %2, align 8
  %3 = load ptr, ptr %2, align 8
  %4 = getelementptr inbounds %class.TypeLong, ptr %3, i32 0, i32 1
  %5 = load i64, ptr %4, align 8
  %6 = getelementptr inbounds %class.TypeLong, ptr %3, i32 0, i32 2
  %7 = load i64, ptr %6, align 8
  %8 = icmp eq i64 %5, %7
  ret i1 %8
}

; Function Attrs: mustprogress nounwind uwtable
define linkonce_odr hidden noundef ptr @_ZNK4Type8isa_longEv(ptr noundef nonnull align 8 dereferenceable(20) %0) #1 comdat align 2 {
  %2 = alloca ptr, align 8
  store ptr %0, ptr %2, align 8
  %3 = load ptr, ptr %2, align 8
  %4 = getelementptr inbounds %class.Type, ptr %3, i32 0, i32 2
  %5 = load i32, ptr %4, align 8
  %6 = icmp eq i32 %5, 4
  br i1 %6, label %7, label %8

7:                                                ; preds = %1
  br label %9

8:                                                ; preds = %1
  br label %9

9:                                                ; preds = %8, %7
  %10 = phi ptr [ %3, %7 ], [ null, %8 ]
  ret ptr %10
}

; Function Attrs: mustprogress nounwind uwtable
define linkonce_odr hidden noundef ptr @_ZNK11PhaseValues4typeEPK4Node(ptr noundef nonnull align 8 dereferenceable(2400) %0, ptr noundef %1) #1 comdat align 2 {
  %3 = alloca ptr, align 8
  %4 = alloca ptr, align 8
  %5 = alloca ptr, align 8
  store ptr %0, ptr %3, align 8
  store ptr %1, ptr %4, align 8
  %6 = load ptr, ptr %3, align 8
  %7 = getelementptr inbounds %class.PhaseValues, ptr %6, i32 0, i32 3
  %8 = load ptr, ptr %7, align 8
  %9 = load ptr, ptr %4, align 8
  %10 = getelementptr inbounds %class.Node, ptr %9, i32 0, i32 7
  %11 = load i32, ptr %10, align 8
  %12 = call noundef ptr @_ZNK10Type_Array11fast_lookupEj(ptr noundef nonnull align 8 dereferenceable(24) %8, i32 noundef %11)
  store ptr %12, ptr %5, align 8
  %13 = load ptr, ptr %5, align 8
  ret ptr %13
}

; Function Attrs: mustprogress nounwind uwtable
define linkonce_odr hidden noundef ptr @_ZNK4Node2inEj(ptr noundef nonnull align 8 dereferenceable(52) %0, i32 noundef %1) #1 comdat align 2 {
  %3 = alloca ptr, align 8
  %4 = alloca i32, align 4
  store ptr %0, ptr %3, align 8
  store i32 %1, ptr %4, align 4
  %5 = load ptr, ptr %3, align 8
  %6 = getelementptr inbounds %class.Node, ptr %5, i32 0, i32 1
  %7 = load ptr, ptr %6, align 8
  %8 = load i32, ptr %4, align 4
  %9 = zext i32 %8 to i64
  %10 = getelementptr inbounds ptr, ptr %7, i64 %9
  %11 = load ptr, ptr %10, align 8
  ret ptr %11
}

; Function Attrs: mustprogress nounwind uwtable
define hidden noundef ptr @_ZNK23CountTrailingZerosLNode5ValueEP8PhaseGVN(ptr noundef nonnull align 8 dereferenceable(52) %0, ptr noundef %1) unnamed_addr #1 align 2 {
  %3 = alloca ptr, align 8
  %4 = alloca ptr, align 8
  %5 = alloca ptr, align 8
  %6 = alloca ptr, align 8
  %7 = alloca ptr, align 8
  %8 = alloca i64, align 8
  %9 = alloca i32, align 4
  %10 = alloca i32, align 4
  %11 = alloca i32, align 4
  store ptr %0, ptr %4, align 8
  store ptr %1, ptr %5, align 8
  %12 = load ptr, ptr %4, align 8
  %13 = load ptr, ptr %5, align 8
  %14 = call noundef ptr @_ZNK4Node2inEj(ptr noundef nonnull align 8 dereferenceable(52) %12, i32 noundef 1)
  %15 = call noundef ptr @_ZNK11PhaseValues4typeEPK4Node(ptr noundef nonnull align 8 dereferenceable(2400) %13, ptr noundef %14)
  store ptr %15, ptr %6, align 8
  %16 = load ptr, ptr %6, align 8
  %17 = load ptr, ptr @_ZN4Type3TOPE, align 8
  %18 = icmp eq ptr %16, %17
  br i1 %18, label %19, label %21

19:                                               ; preds = %2
  %20 = load ptr, ptr @_ZN4Type3TOPE, align 8
  store ptr %20, ptr %3, align 8
  br label %98

21:                                               ; preds = %2
  %22 = load ptr, ptr %6, align 8
  %23 = call noundef ptr @_ZNK4Type8isa_longEv(ptr noundef nonnull align 8 dereferenceable(20) %22)
  store ptr %23, ptr %7, align 8
  %24 = load ptr, ptr %7, align 8
  %25 = icmp ne ptr %24, null
  br i1 %25, label %26, label %96

26:                                               ; preds = %21
  %27 = load ptr, ptr %7, align 8
  %28 = call noundef zeroext i1 @_ZNK8TypeLong6is_conEv(ptr noundef nonnull align 8 dereferenceable(40) %27)
  br i1 %28, label %29, label %96

29:                                               ; preds = %26
  %30 = load ptr, ptr %7, align 8
  %31 = call noundef i64 @_ZNK8TypeLong7get_conEv(ptr noundef nonnull align 8 dereferenceable(40) %30)
  store i64 %31, ptr %8, align 8
  %32 = load i64, ptr %8, align 8
  %33 = icmp eq i64 %32, 0
  br i1 %33, label %34, label %36

34:                                               ; preds = %29
  %35 = call noundef ptr @_ZN7TypeInt4makeEi(i32 noundef 64)
  store ptr %35, ptr %3, align 8
  br label %98

36:                                               ; preds = %29
  store i32 63, ptr %11, align 4
  %37 = load i64, ptr %8, align 8
  %38 = trunc i64 %37 to i32
  store i32 %38, ptr %10, align 4
  %39 = load i32, ptr %10, align 4
  %40 = icmp ne i32 %39, 0
  br i1 %40, label %41, label %45

41:                                               ; preds = %36
  %42 = load i32, ptr %11, align 4
  %43 = sub nsw i32 %42, 32
  store i32 %43, ptr %11, align 4
  %44 = load i32, ptr %10, align 4
  store i32 %44, ptr %9, align 4
  br label %49

45:                                               ; preds = %36
  %46 = load i64, ptr %8, align 8
  %47 = lshr i64 %46, 32
  %48 = trunc i64 %47 to i32
  store i32 %48, ptr %9, align 4
  br label %49

49:                                               ; preds = %45, %41
  %50 = load i32, ptr %9, align 4
  %51 = shl i32 %50, 16
  store i32 %51, ptr %10, align 4
  %52 = load i32, ptr %10, align 4
  %53 = icmp ne i32 %52, 0
  br i1 %53, label %54, label %58

54:                                               ; preds = %49
  %55 = load i32, ptr %11, align 4
  %56 = sub nsw i32 %55, 16
  store i32 %56, ptr %11, align 4
  %57 = load i32, ptr %10, align 4
  store i32 %57, ptr %9, align 4
  br label %58

58:                                               ; preds = %54, %49
  %59 = load i32, ptr %9, align 4
  %60 = shl i32 %59, 8
  store i32 %60, ptr %10, align 4
  %61 = load i32, ptr %10, align 4
  %62 = icmp ne i32 %61, 0
  br i1 %62, label %63, label %67

63:                                               ; preds = %58
  %64 = load i32, ptr %11, align 4
  %65 = sub nsw i32 %64, 8
  store i32 %65, ptr %11, align 4
  %66 = load i32, ptr %10, align 4
  store i32 %66, ptr %9, align 4
  br label %67

67:                                               ; preds = %63, %58
  %68 = load i32, ptr %9, align 4
  %69 = shl i32 %68, 4
  store i32 %69, ptr %10, align 4
  %70 = load i32, ptr %10, align 4
  %71 = icmp ne i32 %70, 0
  br i1 %71, label %72, label %76

72:                                               ; preds = %67
  %73 = load i32, ptr %11, align 4
  %74 = sub nsw i32 %73, 4
  store i32 %74, ptr %11, align 4
  %75 = load i32, ptr %10, align 4
  store i32 %75, ptr %9, align 4
  br label %76

76:                                               ; preds = %72, %67
  %77 = load i32, ptr %9, align 4
  %78 = shl i32 %77, 2
  store i32 %78, ptr %10, align 4
  %79 = load i32, ptr %10, align 4
  %80 = icmp ne i32 %79, 0
  br i1 %80, label %81, label %85

81:                                               ; preds = %76
  %82 = load i32, ptr %11, align 4
  %83 = sub nsw i32 %82, 2
  store i32 %83, ptr %11, align 4
  %84 = load i32, ptr %10, align 4
  store i32 %84, ptr %9, align 4
  br label %85

85:                                               ; preds = %81, %76
  %86 = load i32, ptr %9, align 4
  %87 = shl i32 %86, 1
  store i32 %87, ptr %10, align 4
  %88 = load i32, ptr %10, align 4
  %89 = icmp ne i32 %88, 0
  br i1 %89, label %90, label %93

90:                                               ; preds = %85
  %91 = load i32, ptr %11, align 4
  %92 = sub nsw i32 %91, 1
  store i32 %92, ptr %11, align 4
  br label %93

93:                                               ; preds = %90, %85
  %94 = load i32, ptr %11, align 4
  %95 = call noundef ptr @_ZN7TypeInt4makeEi(i32 noundef %94)
  store ptr %95, ptr %3, align 8
  br label %98

96:                                               ; preds = %26, %21
  %97 = load ptr, ptr @_ZN7TypeInt3INTE, align 8
  store ptr %97, ptr %3, align 8
  br label %98

98:                                               ; preds = %96, %93, %34, %19
  %99 = load ptr, ptr %3, align 8
  ret ptr %99
}