; Function Attrs: mustprogress nounwind uwtable
define hidden noundef ptr @_ZNK23CountTrailingZerosLNode5ValueEP8PhaseGVN(ptr nocapture noundef nonnull readonly align 8 dereferenceable(52) %0, ptr nocapture noundef readonly %1) unnamed_addr #0 align 2 {
  %3 = getelementptr inbounds i8, ptr %0, i64 8
  %4 = load ptr, ptr %3, align 8
  %5 = getelementptr inbounds i8, ptr %4, i64 8
  %6 = load ptr, ptr %5, align 8
  %7 = getelementptr inbounds i8, ptr %1, i64 40
  %8 = load ptr, ptr %7, align 8
  %9 = getelementptr inbounds i8, ptr %6, i64 40
  %10 = load i32, ptr %9, align 8
  %11 = getelementptr inbounds i8, ptr %8, i64 16
  %12 = load ptr, ptr %11, align 8
  %13 = zext i32 %10 to i64
  %14 = getelementptr inbounds ptr, ptr %12, i64 %13
  %15 = load ptr, ptr %14, align 8
  %16 = load ptr, ptr @_ZN4Type3TOPE, align 8
  %17 = icmp eq ptr %15, %16
  br i1 %17, label %48, label %18

18:                                               ; preds = %2
  %19 = getelementptr inbounds i8, ptr %15, i64 16
  %20 = load i32, ptr %19, align 8
  %21 = icmp ne i32 %20, 4
  %.not54 = icmp eq ptr %15, null
  %.not = or i1 %.not54, %21
  br i1 %.not, label %46, label %22

22:                                               ; preds = %18
  %23 = getelementptr inbounds i8, ptr %15, i64 24
  %24 = load i64, ptr %23, align 8
  %25 = getelementptr inbounds i8, ptr %15, i64 32
  %26 = load i64, ptr %25, align 8
  %27 = icmp eq i64 %24, %26
  br i1 %27, label %28, label %46

28:                                               ; preds = %22
  %29 = icmp eq i64 %24, 0
  br i1 %29, label %30, label %32

30:                                               ; preds = %28
  %31 = tail call noundef ptr @_ZN7TypeInt4makeEi(i32 noundef 64) #2
  br label %48

32:                                               ; preds = %28
  %33 = trunc i64 %24 to i32
  %.not48 = icmp eq i32 %33, 0
  %34 = lshr exact i64 %24, 32
  %35 = trunc nuw i64 %34 to i32
  %.033 = select i1 %.not48, i32 %35, i32 %33
  %.0 = select i1 %.not48, i32 63, i32 31
  %36 = shl i32 %.033, 16
  %.not49 = icmp eq i32 %36, 0
  %37 = add nsw i32 %.0, -16
  %.134 = select i1 %.not49, i32 %.033, i32 %36
  %.1 = select i1 %.not49, i32 %.0, i32 %37
  %38 = shl i32 %.134, 8
  %.not50 = icmp eq i32 %38, 0
  %39 = add nsw i32 %.1, -8
  %.235 = select i1 %.not50, i32 %.134, i32 %38
  %.2 = select i1 %.not50, i32 %.1, i32 %39
  %40 = shl i32 %.235, 4
  %.not51 = icmp eq i32 %40, 0
  %41 = add nsw i32 %.2, -4
  %.336 = select i1 %.not51, i32 %.235, i32 %40
  %.3 = select i1 %.not51, i32 %.2, i32 %41
  %42 = shl i32 %.336, 2
  %.not52 = icmp eq i32 %42, 0
  %43 = add nsw i32 %.3, -2
  %.437 = select i1 %.not52, i32 %.336, i32 %42
  %.4 = select i1 %.not52, i32 %.3, i32 %43
  %.mask = and i32 %.437, 2147483647
  %.not53 = icmp ne i32 %.mask, 0
  %44 = sext i1 %.not53 to i32
  %.5 = add nsw i32 %.4, %44
  %45 = tail call noundef ptr @_ZN7TypeInt4makeEi(i32 noundef %.5) #2
  br label %48

46:                                               ; preds = %22, %18
  %47 = load ptr, ptr @_ZN7TypeInt3INTE, align 8
  br label %48

48:                                               ; preds = %2, %46, %32, %30
  %.038 = phi ptr [ %31, %30 ], [ %45, %32 ], [ %47, %46 ], [ %16, %2 ]
  ret ptr %.038
}